target datalayout = "e-m:e-p270:32:32-p271:32:32-p272:64:64-i64:64-i128:128-f80:128-n8:16:32:64-S128"
target triple = "x86_64-pc-linux-gnu"

@ff_scale_mv_ref = global [8 x [8 x i32]] zeroinitializer, align 16

; Function Attrs: cold nounwind optsize uwtable
define internal void @snow_static_init() #4 {
  %1 = alloca i32, align 4
  %2 = alloca i32, align 4
  %3 = alloca i32, align 4
  call void @llvm.lifetime.start.p0(i64 4, ptr %1) #6
  store i32 0, ptr %1, align 4, !tbaa !9
  br label %4

4:                                                ; preds = %30, %0
  %5 = load i32, ptr %1, align 4, !tbaa !9
  %6 = icmp slt i32 %5, 8
  br i1 %6, label %8, label %7

7:                                                ; preds = %4
  store i32 2, ptr %2, align 4
  call void @llvm.lifetime.end.p0(i64 4, ptr %1) #6
  br label %33

8:                                                ; preds = %4
  call void @llvm.lifetime.start.p0(i64 4, ptr %3) #6
  store i32 0, ptr %3, align 4, !tbaa !9
  br label %9

9:                                                ; preds = %26, %8
  %10 = load i32, ptr %3, align 4, !tbaa !9
  %11 = icmp slt i32 %10, 8
  br i1 %11, label %13, label %12

12:                                               ; preds = %9
  store i32 5, ptr %2, align 4
  call void @llvm.lifetime.end.p0(i64 4, ptr %3) #6
  br label %29

13:                                               ; preds = %9
  %14 = load i32, ptr %1, align 4, !tbaa !9
  %15 = add nsw i32 %14, 1
  %16 = mul nsw i32 256, %15
  %17 = load i32, ptr %3, align 4, !tbaa !9
  %18 = add nsw i32 %17, 1
  %19 = sdiv i32 %16, %18
  %20 = load i32, ptr %1, align 4, !tbaa !9
  %21 = sext i32 %20 to i64
  %22 = getelementptr inbounds [8 x [8 x i32]], ptr @ff_scale_mv_ref, i64 0, i64 %21
  %23 = load i32, ptr %3, align 4, !tbaa !9
  %24 = sext i32 %23 to i64
  %25 = getelementptr inbounds [8 x i32], ptr %22, i64 0, i64 %24
  store i32 %19, ptr %25, align 4, !tbaa !9
  br label %26

26:                                               ; preds = %13
  %27 = load i32, ptr %3, align 4, !tbaa !9
  %28 = add nsw i32 %27, 1
  store i32 %28, ptr %3, align 4, !tbaa !9
  br label %9, !llvm.loop !110

29:                                               ; preds = %12
  br label %30

30:                                               ; preds = %29
  %31 = load i32, ptr %1, align 4, !tbaa !9
  %32 = add nsw i32 %31, 1
  store i32 %32, ptr %1, align 4, !tbaa !9
  br label %4, !llvm.loop !111

33:                                               ; preds = %7
  ret void
}