; Function Attrs: cold nofree norecurse nosync nounwind optsize memory(write, argmem: none, inaccessiblemem: none) uwtable
define internal void @snow_static_init() #8 {
  br label %.preheader

.preheader:                                       ; preds = %0, %4
  %indvars.iv12 = phi i64 [ 0, %0 ], [ %indvars.iv.next13, %4 ]
  %indvars.iv12.tr = trunc i64 %indvars.iv12 to i32
  %1 = shl i32 %indvars.iv12.tr, 8
  %2 = add i32 %1, 256
  br label %5

3:                                                ; preds = %4
  ret void

4:                                                ; preds = %5
  %indvars.iv.next13 = add nuw nsw i64 %indvars.iv12, 1
  %exitcond15.not = icmp eq i64 %indvars.iv.next13, 8
  br i1 %exitcond15.not, label %3, label %.preheader, !llvm.loop !98

5:                                                ; preds = %.preheader, %5
  %indvars.iv = phi i64 [ 0, %.preheader ], [ %indvars.iv.next, %5 ]
  %indvars.iv.next = add nuw nsw i64 %indvars.iv, 1
  %6 = trunc nuw nsw i64 %indvars.iv.next to i32
  %7 = udiv i32 %2, %6
  %8 = getelementptr inbounds nuw [8 x [8 x i32]], ptr @ff_scale_mv_ref, i64 0, i64 %indvars.iv12, i64 %indvars.iv
  store i32 %7, ptr %8, align 4, !tbaa !60
  %exitcond.not = icmp eq i64 %indvars.iv.next, 8
  br i1 %exitcond.not, label %4, label %5, !llvm.loop !99
}